target datalayout = "e-m:e-p270:32:32-p271:32:32-p272:64:64-i64:64-i128:128-f80:128-n8:16:32:64-S128"
target triple = "x86_64-pc-linux-gnu"

%struct.aiString = type { i32, [1024 x i8] }
%class.aiMatrix4x4t = type { float, float, float, float, float, float, float, float, float, float, float, float, float, float, float, float }
%struct.aiNode = type { %struct.aiString, %class.aiMatrix4x4t, ptr, i32, ptr, i32, ptr, ptr }

@.str.65 = private unnamed_addr constant [4 x i8] c"%u \00", align 1
@.str.86 = private unnamed_addr constant [162 x i8] c"%s<Node name=\22%s\22> \0A%s\09<Matrix4> \0A%s\09\09%0 6f %0 6f %0 6f %0 6f\0A%s\09\09%0 6f %0 6f %0 6f %0 6f\0A%s\09\09%0 6f %0 6f %0 6f %0 6f\0A%s\09\09%0 6f %0 6f %0 6f %0 6f\0A%s\09</Matrix4> \0A\00", align 1
@.str.87 = private unnamed_addr constant [27 x i8] c"%s\09<MeshRefs num=\22%u\22>\0A%s\09\00", align 1
@.str.88 = private unnamed_addr constant [17 x i8] c"\0A%s\09</MeshRefs>\0A\00", align 1
@.str.89 = private unnamed_addr constant [24 x i8] c"%s\09<NodeList num=\22%u\22>\0A\00", align 1
@.str.90 = private unnamed_addr constant [16 x i8] c"%s\09</NodeList>\0A\00", align 1
@.str.91 = private unnamed_addr constant [11 x i8] c"%s</Node>\0A\00", align 1

; Function Attrs: mustprogress nounwind uwtable
define linkonce_odr hidden void @_ZN8aiStringC2Ev(ptr noundef nonnull align 4 dereferenceable(1028) %0) unnamed_addr #2 comdat align 2 {
  %2 = alloca ptr, align 8
  store ptr %0, ptr %2, align 8
  %3 = load ptr, ptr %2, align 8
  %4 = getelementptr inbounds nuw %struct.aiString, ptr %3, i32 0, i32 0
  store i32 0, ptr %4, align 4
  %5 = getelementptr inbounds nuw %struct.aiString, ptr %3, i32 0, i32 1
  call void @llvm.memset.p0.i64(ptr align 4 %5, i8 0, i64 1024, i1 false)
  ret void
}

; Function Attrs: mustprogress uwtable
define internal void @_ZN6Assimp16AssxmlFileWriterL9WriteNodeEPK6aiNodePNS_8IOStreamEj(ptr noundef %0, ptr noundef %1, i32 noundef %2) #0 {
  %4 = alloca ptr, align 8
  %5 = alloca ptr, align 8
  %6 = alloca i32, align 4
  %7 = alloca [512 x i8], align 16
  %8 = alloca i32, align 4
  %9 = alloca ptr, align 8
  %10 = alloca %struct.aiString, align 4
  %11 = alloca i32, align 4
  %12 = alloca i32, align 4
  store ptr %0, ptr %4, align 8
  store ptr %1, ptr %5, align 8
  store i32 %2, ptr %6, align 4
  call void @llvm.lifetime.start.p0(i64 512, ptr %7) #14
  call void @llvm.lifetime.start.p0(i64 4, ptr %8) #14
  store i32 0, ptr %8, align 4
  br label %13

13:                                               ; preds = %22, %3
  %14 = load i32, ptr %8, align 4
  %15 = load i32, ptr %6, align 4
  %16 = icmp ult i32 %14, %15
  br i1 %16, label %18, label %17

17:                                               ; preds = %13
  call void @llvm.lifetime.end.p0(i64 4, ptr %8) #14
  br label %25

18:                                               ; preds = %13
  %19 = load i32, ptr %8, align 4
  %20 = zext i32 %19 to i64
  %21 = getelementptr inbounds nuw [512 x i8], ptr %7, i64 0, i64 %20
  store i8 9, ptr %21, align 1
  br label %22

22:                                               ; preds = %18
  %23 = load i32, ptr %8, align 4
  %24 = add i32 %23, 1
  store i32 %24, ptr %8, align 4
  br label %13, !llvm.loop !35

25:                                               ; preds = %17
  %26 = load i32, ptr %6, align 4
  %27 = zext i32 %26 to i64
  %28 = getelementptr inbounds nuw [512 x i8], ptr %7, i64 0, i64 %27
  store i8 0, ptr %28, align 1
  call void @llvm.lifetime.start.p0(i64 8, ptr %9) #14
  %29 = load ptr, ptr %4, align 8
  %30 = getelementptr inbounds nuw %struct.aiNode, ptr %29, i32 0, i32 1
  store ptr %30, ptr %9, align 8
  call void @llvm.lifetime.start.p0(i64 1028, ptr %10) #14
  call void @_ZN8aiStringC2Ev(ptr noundef nonnull align 4 dereferenceable(1028) %10) #14
  %31 = load ptr, ptr %4, align 8
  %32 = getelementptr inbounds nuw %struct.aiNode, ptr %31, i32 0, i32 0
  call void @_ZN6Assimp16AssxmlFileWriterL11ConvertNameER8aiStringRKS1_(ptr noundef nonnull align 4 dereferenceable(1028) %10, ptr noundef nonnull align 4 dereferenceable(1028) %32)
  %33 = load ptr, ptr %5, align 8
  %34 = getelementptr inbounds [512 x i8], ptr %7, i64 0, i64 0
  %35 = getelementptr inbounds nuw %struct.aiString, ptr %10, i32 0, i32 1
  %36 = getelementptr inbounds [1024 x i8], ptr %35, i64 0, i64 0
  %37 = getelementptr inbounds [512 x i8], ptr %7, i64 0, i64 0
  %38 = getelementptr inbounds [512 x i8], ptr %7, i64 0, i64 0
  %39 = load ptr, ptr %9, align 8
  %40 = getelementptr inbounds nuw %class.aiMatrix4x4t, ptr %39, i32 0, i32 0
  %41 = load float, ptr %40, align 4
  %42 = fpext float %41 to double
  %43 = load ptr, ptr %9, align 8
  %44 = getelementptr inbounds nuw %class.aiMatrix4x4t, ptr %43, i32 0, i32 1
  %45 = load float, ptr %44, align 4
  %46 = fpext float %45 to double
  %47 = load ptr, ptr %9, align 8
  %48 = getelementptr inbounds nuw %class.aiMatrix4x4t, ptr %47, i32 0, i32 2
  %49 = load float, ptr %48, align 4
  %50 = fpext float %49 to double
  %51 = load ptr, ptr %9, align 8
  %52 = getelementptr inbounds nuw %class.aiMatrix4x4t, ptr %51, i32 0, i32 3
  %53 = load float, ptr %52, align 4
  %54 = fpext float %53 to double
  %55 = getelementptr inbounds [512 x i8], ptr %7, i64 0, i64 0
  %56 = load ptr, ptr %9, align 8
  %57 = getelementptr inbounds nuw %class.aiMatrix4x4t, ptr %56, i32 0, i32 4
  %58 = load float, ptr %57, align 4
  %59 = fpext float %58 to double
  %60 = load ptr, ptr %9, align 8
  %61 = getelementptr inbounds nuw %class.aiMatrix4x4t, ptr %60, i32 0, i32 5
  %62 = load float, ptr %61, align 4
  %63 = fpext float %62 to double
  %64 = load ptr, ptr %9, align 8
  %65 = getelementptr inbounds nuw %class.aiMatrix4x4t, ptr %64, i32 0, i32 6
  %66 = load float, ptr %65, align 4
  %67 = fpext float %66 to double
  %68 = load ptr, ptr %9, align 8
  %69 = getelementptr inbounds nuw %class.aiMatrix4x4t, ptr %68, i32 0, i32 7
  %70 = load float, ptr %69, align 4
  %71 = fpext float %70 to double
  %72 = getelementptr inbounds [512 x i8], ptr %7, i64 0, i64 0
  %73 = load ptr, ptr %9, align 8
  %74 = getelementptr inbounds nuw %class.aiMatrix4x4t, ptr %73, i32 0, i32 8
  %75 = load float, ptr %74, align 4
  %76 = fpext float %75 to double
  %77 = load ptr, ptr %9, align 8
  %78 = getelementptr inbounds nuw %class.aiMatrix4x4t, ptr %77, i32 0, i32 9
  %79 = load float, ptr %78, align 4
  %80 = fpext float %79 to double
  %81 = load ptr, ptr %9, align 8
  %82 = getelementptr inbounds nuw %class.aiMatrix4x4t, ptr %81, i32 0, i32 10
  %83 = load float, ptr %82, align 4
  %84 = fpext float %83 to double
  %85 = load ptr, ptr %9, align 8
  %86 = getelementptr inbounds nuw %class.aiMatrix4x4t, ptr %85, i32 0, i32 11
  %87 = load float, ptr %86, align 4
  %88 = fpext float %87 to double
  %89 = getelementptr inbounds [512 x i8], ptr %7, i64 0, i64 0
  %90 = load ptr, ptr %9, align 8
  %91 = getelementptr inbounds nuw %class.aiMatrix4x4t, ptr %90, i32 0, i32 12
  %92 = load float, ptr %91, align 4
  %93 = fpext float %92 to double
  %94 = load ptr, ptr %9, align 8
  %95 = getelementptr inbounds nuw %class.aiMatrix4x4t, ptr %94, i32 0, i32 13
  %96 = load float, ptr %95, align 4
  %97 = fpext float %96 to double
  %98 = load ptr, ptr %9, align 8
  %99 = getelementptr inbounds nuw %class.aiMatrix4x4t, ptr %98, i32 0, i32 14
  %100 = load float, ptr %99, align 4
  %101 = fpext float %100 to double
  %102 = load ptr, ptr %9, align 8
  %103 = getelementptr inbounds nuw %class.aiMatrix4x4t, ptr %102, i32 0, i32 15
  %104 = load float, ptr %103, align 4
  %105 = fpext float %104 to double
  %106 = getelementptr inbounds [512 x i8], ptr %7, i64 0, i64 0
  %107 = call noundef i32 (ptr, ptr, ...) @_ZN6Assimp16AssxmlFileWriterL8ioprintfEPNS_8IOStreamEPKcz(ptr noundef %33, ptr noundef @.str.86, ptr noundef %34, ptr noundef %36, ptr noundef %37, ptr noundef %38, double noundef %42, double noundef %46, double noundef %50, double noundef %54, ptr noundef %55, double noundef %59, double noundef %63, double noundef %67, double noundef %71, ptr noundef %72, double noundef %76, double noundef %80, double noundef %84, double noundef %88, ptr noundef %89, double noundef %93, double noundef %97, double noundef %101, double noundef %105, ptr noundef %106)
  %108 = load ptr, ptr %4, align 8
  %109 = getelementptr inbounds nuw %struct.aiNode, ptr %108, i32 0, i32 5
  %110 = load i32, ptr %109, align 8
  %111 = icmp ne i32 %110, 0
  br i1 %111, label %112, label %144

112:                                              ; preds = %25
  %113 = load ptr, ptr %5, align 8
  %114 = getelementptr inbounds [512 x i8], ptr %7, i64 0, i64 0
  %115 = load ptr, ptr %4, align 8
  %116 = getelementptr inbounds nuw %struct.aiNode, ptr %115, i32 0, i32 5
  %117 = load i32, ptr %116, align 8
  %118 = getelementptr inbounds [512 x i8], ptr %7, i64 0, i64 0
  %119 = call noundef i32 (ptr, ptr, ...) @_ZN6Assimp16AssxmlFileWriterL8ioprintfEPNS_8IOStreamEPKcz(ptr noundef %113, ptr noundef @.str.87, ptr noundef %114, i32 noundef %117, ptr noundef %118)
  call void @llvm.lifetime.start.p0(i64 4, ptr %11) #14
  store i32 0, ptr %11, align 4
  br label %120

120:                                              ; preds = %137, %112
  %121 = load i32, ptr %11, align 4
  %122 = load ptr, ptr %4, align 8
  %123 = getelementptr inbounds nuw %struct.aiNode, ptr %122, i32 0, i32 5
  %124 = load i32, ptr %123, align 8
  %125 = icmp ult i32 %121, %124
  br i1 %125, label %127, label %126

126:                                              ; preds = %120
  call void @llvm.lifetime.end.p0(i64 4, ptr %11) #14
  br label %140

127:                                              ; preds = %120
  %128 = load ptr, ptr %5, align 8
  %129 = load ptr, ptr %4, align 8
  %130 = getelementptr inbounds nuw %struct.aiNode, ptr %129, i32 0, i32 6
  %131 = load ptr, ptr %130, align 8
  %132 = load i32, ptr %11, align 4
  %133 = zext i32 %132 to i64
  %134 = getelementptr inbounds nuw i32, ptr %131, i64 %133
  %135 = load i32, ptr %134, align 4
  %136 = call noundef i32 (ptr, ptr, ...) @_ZN6Assimp16AssxmlFileWriterL8ioprintfEPNS_8IOStreamEPKcz(ptr noundef %128, ptr noundef @.str.65, i32 noundef %135)
  br label %137

137:                                              ; preds = %127
  %138 = load i32, ptr %11, align 4
  %139 = add i32 %138, 1
  store i32 %139, ptr %11, align 4
  br label %120, !llvm.loop !36

140:                                              ; preds = %126
  %141 = load ptr, ptr %5, align 8
  %142 = getelementptr inbounds [512 x i8], ptr %7, i64 0, i64 0
  %143 = call noundef i32 (ptr, ptr, ...) @_ZN6Assimp16AssxmlFileWriterL8ioprintfEPNS_8IOStreamEPKcz(ptr noundef %141, ptr noundef @.str.88, ptr noundef %142)
  br label %144

144:                                              ; preds = %140, %25
  %145 = load ptr, ptr %4, align 8
  %146 = getelementptr inbounds nuw %struct.aiNode, ptr %145, i32 0, i32 3
  %147 = load i32, ptr %146, align 8
  %148 = icmp ne i32 %147, 0
  br i1 %148, label %149, label %181

149:                                              ; preds = %144
  %150 = load ptr, ptr %5, align 8
  %151 = getelementptr inbounds [512 x i8], ptr %7, i64 0, i64 0
  %152 = load ptr, ptr %4, align 8
  %153 = getelementptr inbounds nuw %struct.aiNode, ptr %152, i32 0, i32 3
  %154 = load i32, ptr %153, align 8
  %155 = call noundef i32 (ptr, ptr, ...) @_ZN6Assimp16AssxmlFileWriterL8ioprintfEPNS_8IOStreamEPKcz(ptr noundef %150, ptr noundef @.str.89, ptr noundef %151, i32 noundef %154)
  call void @llvm.lifetime.start.p0(i64 4, ptr %12) #14
  store i32 0, ptr %12, align 4
  br label %156

156:                                              ; preds = %174, %149
  %157 = load i32, ptr %12, align 4
  %158 = load ptr, ptr %4, align 8
  %159 = getelementptr inbounds nuw %struct.aiNode, ptr %158, i32 0, i32 3
  %160 = load i32, ptr %159, align 8
  %161 = icmp ult i32 %157, %160
  br i1 %161, label %163, label %162

162:                                              ; preds = %156
  call void @llvm.lifetime.end.p0(i64 4, ptr %12) #14
  br label %177

163:                                              ; preds = %156
  %164 = load ptr, ptr %4, align 8
  %165 = getelementptr inbounds nuw %struct.aiNode, ptr %164, i32 0, i32 4
  %166 = load ptr, ptr %165, align 8
  %167 = load i32, ptr %12, align 4
  %168 = zext i32 %167 to i64
  %169 = getelementptr inbounds nuw ptr, ptr %166, i64 %168
  %170 = load ptr, ptr %169, align 8
  %171 = load ptr, ptr %5, align 8
  %172 = load i32, ptr %6, align 4
  %173 = add i32 %172, 2
  call void @_ZN6Assimp16AssxmlFileWriterL9WriteNodeEPK6aiNodePNS_8IOStreamEj(ptr noundef %170, ptr noundef %171, i32 noundef %173)
  br label %174

174:                                              ; preds = %163
  %175 = load i32, ptr %12, align 4
  %176 = add i32 %175, 1
  store i32 %176, ptr %12, align 4
  br label %156, !llvm.loop !37

177:                                              ; preds = %162
  %178 = load ptr, ptr %5, align 8
  %179 = getelementptr inbounds [512 x i8], ptr %7, i64 0, i64 0
  %180 = call noundef i32 (ptr, ptr, ...) @_ZN6Assimp16AssxmlFileWriterL8ioprintfEPNS_8IOStreamEPKcz(ptr noundef %178, ptr noundef @.str.90, ptr noundef %179)
  br label %181

181:                                              ; preds = %177, %144
  %182 = load ptr, ptr %5, align 8
  %183 = getelementptr inbounds [512 x i8], ptr %7, i64 0, i64 0
  %184 = call noundef i32 (ptr, ptr, ...) @_ZN6Assimp16AssxmlFileWriterL8ioprintfEPNS_8IOStreamEPKcz(ptr noundef %182, ptr noundef @.str.91, ptr noundef %183)
  call void @llvm.lifetime.end.p0(i64 1028, ptr %10) #14
  call void @llvm.lifetime.end.p0(i64 8, ptr %9) #14
  call void @llvm.lifetime.end.p0(i64 512, ptr %7) #14
  ret void
}