; Function Attrs: mustprogress uwtable
define internal fastcc void @_ZN6Assimp16AssxmlFileWriterL9WriteNodeEPK6aiNodePNS_8IOStreamEj(ptr noundef readonly captures(none) %0, ptr noundef %1, i32 noundef %2) unnamed_addr #0 {
  %4 = alloca [512 x i8], align 16
  %5 = alloca %struct.aiString, align 4
  call void @llvm.lifetime.start.p0(i64 512, ptr nonnull %4) #16
  %.not60 = icmp eq i32 %2, 0
  br i1 %.not60, label %._crit_edge, label %.lr.ph.preheader

.lr.ph.preheader:                                 ; preds = %3
  %6 = zext i32 %2 to i64
  call void @llvm.memset.p0.i64(ptr nonnull align 16 %4, i8 9, i64 %6, i1 false)
  br label %._crit_edge

._crit_edge:                                      ; preds = %3, %.lr.ph.preheader
  %.pre-phi = phi i64 [ %6, %.lr.ph.preheader ], [ 0, %3 ]
  %7 = getelementptr inbounds nuw [512 x i8], ptr %4, i64 0, i64 %.pre-phi
  store i8 0, ptr %7, align 1
  %8 = getelementptr inbounds nuw i8, ptr %0, i64 1028
  call void @llvm.lifetime.start.p0(i64 1028, ptr nonnull %5) #16
  %9 = getelementptr inbounds nuw i8, ptr %5, i64 4
  call void @llvm.memset.p0.i64(ptr noundef nonnull align 4 dereferenceable(1028) %9, i8 0, i64 1024, i1 false)
  call fastcc void @_ZN6Assimp16AssxmlFileWriterL11ConvertNameER8aiStringRKS1_(ptr noundef nonnull align 4 dereferenceable(1028) %5, ptr noundef nonnull align 4 dereferenceable(1028) %0)
  %10 = getelementptr inbounds nuw i8, ptr %5, i64 4
  %11 = load float, ptr %8, align 4
  %12 = fpext float %11 to double
  %13 = getelementptr inbounds nuw i8, ptr %0, i64 1032
  %14 = load float, ptr %13, align 4
  %15 = fpext float %14 to double
  %16 = getelementptr inbounds nuw i8, ptr %0, i64 1036
  %17 = load float, ptr %16, align 4
  %18 = fpext float %17 to double
  %19 = getelementptr inbounds nuw i8, ptr %0, i64 1040
  %20 = load float, ptr %19, align 4
  %21 = fpext float %20 to double
  %22 = getelementptr inbounds nuw i8, ptr %0, i64 1044
  %23 = load float, ptr %22, align 4
  %24 = fpext float %23 to double
  %25 = getelementptr inbounds nuw i8, ptr %0, i64 1048
  %26 = load float, ptr %25, align 4
  %27 = fpext float %26 to double
  %28 = getelementptr inbounds nuw i8, ptr %0, i64 1052
  %29 = load float, ptr %28, align 4
  %30 = fpext float %29 to double
  %31 = getelementptr inbounds nuw i8, ptr %0, i64 1056
  %32 = load float, ptr %31, align 4
  %33 = fpext float %32 to double
  %34 = getelementptr inbounds nuw i8, ptr %0, i64 1060
  %35 = load float, ptr %34, align 4
  %36 = fpext float %35 to double
  %37 = getelementptr inbounds nuw i8, ptr %0, i64 1064
  %38 = load float, ptr %37, align 4
  %39 = fpext float %38 to double
  %40 = getelementptr inbounds nuw i8, ptr %0, i64 1068
  %41 = load float, ptr %40, align 4
  %42 = fpext float %41 to double
  %43 = getelementptr inbounds nuw i8, ptr %0, i64 1072
  %44 = load float, ptr %43, align 4
  %45 = fpext float %44 to double
  %46 = getelementptr inbounds nuw i8, ptr %0, i64 1076
  %47 = load float, ptr %46, align 4
  %48 = fpext float %47 to double
  %49 = getelementptr inbounds nuw i8, ptr %0, i64 1080
  %50 = load float, ptr %49, align 4
  %51 = fpext float %50 to double
  %52 = getelementptr inbounds nuw i8, ptr %0, i64 1084
  %53 = load float, ptr %52, align 4
  %54 = fpext float %53 to double
  %55 = getelementptr inbounds nuw i8, ptr %0, i64 1088
  %56 = load float, ptr %55, align 4
  %57 = fpext float %56 to double
  call void (ptr, ptr, ...) @_ZN6Assimp16AssxmlFileWriterL8ioprintfEPNS_8IOStreamEPKcz(ptr noundef %1, ptr noundef nonnull @.str.86, ptr noundef nonnull %4, ptr noundef nonnull %10, ptr noundef nonnull %4, ptr noundef nonnull %4, double noundef %12, double noundef %15, double noundef %18, double noundef %21, ptr noundef nonnull %4, double noundef %24, double noundef %27, double noundef %30, double noundef %33, ptr noundef nonnull %4, double noundef %36, double noundef %39, double noundef %42, double noundef %45, ptr noundef nonnull %4, double noundef %48, double noundef %51, double noundef %54, double noundef %57, ptr noundef nonnull %4)
  %58 = getelementptr inbounds nuw i8, ptr %0, i64 1120
  %59 = load i32, ptr %58, align 8
  %.not = icmp eq i32 %59, 0
  br i1 %.not, label %70, label %60

60:                                               ; preds = %._crit_edge
  call void (ptr, ptr, ...) @_ZN6Assimp16AssxmlFileWriterL8ioprintfEPNS_8IOStreamEPKcz(ptr noundef %1, ptr noundef nonnull @.str.87, ptr noundef nonnull %4, i32 noundef %59, ptr noundef nonnull %4)
  %61 = load i32, ptr %58, align 8
  %.not61 = icmp eq i32 %61, 0
  br i1 %.not61, label %._crit_edge55, label %.lr.ph54

.lr.ph54:                                         ; preds = %60
  %62 = getelementptr inbounds nuw i8, ptr %0, i64 1128
  br label %63

._crit_edge55:                                    ; preds = %63, %60
  call void (ptr, ptr, ...) @_ZN6Assimp16AssxmlFileWriterL8ioprintfEPNS_8IOStreamEPKcz(ptr noundef %1, ptr noundef nonnull @.str.88, ptr noundef nonnull %4)
  br label %70

63:                                               ; preds = %.lr.ph54, %63
  %indvars.iv = phi i64 [ 0, %.lr.ph54 ], [ %indvars.iv.next, %63 ]
  %64 = load ptr, ptr %62, align 8
  %65 = getelementptr inbounds nuw i32, ptr %64, i64 %indvars.iv
  %66 = load i32, ptr %65, align 4
  call void (ptr, ptr, ...) @_ZN6Assimp16AssxmlFileWriterL8ioprintfEPNS_8IOStreamEPKcz(ptr noundef %1, ptr noundef nonnull @.str.65, i32 noundef %66)
  %indvars.iv.next = add nuw nsw i64 %indvars.iv, 1
  %67 = load i32, ptr %58, align 8
  %68 = zext i32 %67 to i64
  %69 = icmp samesign ult i64 %indvars.iv.next, %68
  br i1 %69, label %63, label %._crit_edge55, !llvm.loop !39

70:                                               ; preds = %._crit_edge55, %._crit_edge
  %71 = getelementptr inbounds nuw i8, ptr %0, i64 1104
  %72 = load i32, ptr %71, align 8
  %.not50 = icmp eq i32 %72, 0
  br i1 %.not50, label %84, label %73

73:                                               ; preds = %70
  call void (ptr, ptr, ...) @_ZN6Assimp16AssxmlFileWriterL8ioprintfEPNS_8IOStreamEPKcz(ptr noundef %1, ptr noundef nonnull @.str.89, ptr noundef nonnull %4, i32 noundef %72)
  %74 = load i32, ptr %71, align 8
  %.not62 = icmp eq i32 %74, 0
  br i1 %.not62, label %._crit_edge59, label %.lr.ph58

.lr.ph58:                                         ; preds = %73
  %75 = getelementptr inbounds nuw i8, ptr %0, i64 1112
  %76 = add i32 %2, 2
  br label %77

._crit_edge59:                                    ; preds = %77, %73
  call void (ptr, ptr, ...) @_ZN6Assimp16AssxmlFileWriterL8ioprintfEPNS_8IOStreamEPKcz(ptr noundef %1, ptr noundef nonnull @.str.90, ptr noundef nonnull %4)
  br label %84

77:                                               ; preds = %.lr.ph58, %77
  %indvars.iv65 = phi i64 [ 0, %.lr.ph58 ], [ %indvars.iv.next66, %77 ]
  %78 = load ptr, ptr %75, align 8
  %79 = getelementptr inbounds nuw ptr, ptr %78, i64 %indvars.iv65
  %80 = load ptr, ptr %79, align 8
  call fastcc void @_ZN6Assimp16AssxmlFileWriterL9WriteNodeEPK6aiNodePNS_8IOStreamEj(ptr noundef %80, ptr noundef %1, i32 noundef %76)
  %indvars.iv.next66 = add nuw nsw i64 %indvars.iv65, 1
  %81 = load i32, ptr %71, align 8
  %82 = zext i32 %81 to i64
  %83 = icmp samesign ult i64 %indvars.iv.next66, %82
  br i1 %83, label %77, label %._crit_edge59, !llvm.loop !40

84:                                               ; preds = %._crit_edge59, %70
  call void (ptr, ptr, ...) @_ZN6Assimp16AssxmlFileWriterL8ioprintfEPNS_8IOStreamEPKcz(ptr noundef %1, ptr noundef nonnull @.str.91, ptr noundef nonnull %4)
  call void @llvm.lifetime.end.p0(i64 1028, ptr nonnull %5) #16
  call void @llvm.lifetime.end.p0(i64 512, ptr nonnull %4) #16
  ret void
}